; Function Attrs: nounwind uwtable
define hidden zeroext i1 @SDL_SetCursor_REAL(ptr noundef %0) local_unnamed_addr #0 {
  %2 = load ptr, ptr getelementptr inbounds nuw (i8, ptr @SDL_mouse, i64 280), align 8
  %3 = icmp eq ptr %0, %2
  br i1 %3, label %SDL_RedrawCursor.exit, label %4

4:                                                ; preds = %1
  %.not = icmp eq ptr %0, null
  %.val.i.pre = load ptr, ptr getelementptr inbounds nuw (i8, ptr @SDL_mouse, i64 272), align 8
  br i1 %.not, label %10, label %5

5:                                                ; preds = %4
  %.not17 = icmp eq ptr %0, %.val.i.pre
  br i1 %.not17, label %9, label %.preheader

.preheader:                                       ; preds = %5, %.preheader
  %.0.in = phi ptr [ %.0, %.preheader ], [ getelementptr inbounds nuw (i8, ptr @SDL_mouse, i64 264), %5 ]
  %.0 = load ptr, ptr %.0.in, align 8
  %.not18.not = icmp eq ptr %.0, null
  %6 = icmp eq ptr %.0, %0
  %or.cond = or i1 %.not18.not, %6
  br i1 %or.cond, label %7, label %.preheader, !llvm.loop !10

7:                                                ; preds = %.preheader
  br i1 %.not18.not, label %.thread, label %9

.thread:                                          ; preds = %7
  %8 = tail call zeroext i1 (ptr, ...) @SDL_SetError_REAL(ptr noundef nonnull @.str.28) #13
  br label %SDL_RedrawCursor.exit

9:                                                ; preds = %7, %5
  store ptr %0, ptr getelementptr inbounds nuw (i8, ptr @SDL_mouse, i64 280), align 8
  br label %10

10:                                               ; preds = %9, %4
  %.val14.i = phi ptr [ %0, %9 ], [ %2, %4 ]
  %11 = load ptr, ptr getelementptr inbounds nuw (i8, ptr @SDL_mouse, i64 128), align 8
  %.not.i = icmp eq ptr %11, null
  br i1 %.not.i, label %21, label %12

12:                                               ; preds = %10
  %13 = load i8, ptr getelementptr inbounds nuw (i8, ptr @SDL_mouse, i64 288), align 8, !range !3, !noundef !4
  %14 = trunc nuw i8 %13 to i1
  br i1 %14, label %15, label %20

15:                                               ; preds = %12
  %16 = load i8, ptr getelementptr inbounds nuw (i8, ptr @SDL_mouse, i64 185), align 1, !range !3, !noundef !4
  %17 = trunc nuw i8 %16 to i1
  %18 = load i8, ptr getelementptr inbounds nuw (i8, ptr @SDL_mouse, i64 187), align 1, !range !3
  %19 = trunc nuw i8 %18 to i1
  %or.cond.i = select i1 %17, i1 %19, i1 false
  br i1 %or.cond.i, label %20, label %21

20:                                               ; preds = %15, %12
  br label %21

21:                                               ; preds = %20, %15, %10
  %.1.i = phi ptr [ null, %20 ], [ %.val14.i, %15 ], [ %.val.i.pre, %10 ]
  %22 = load ptr, ptr getelementptr inbounds nuw (i8, ptr @SDL_mouse, i64 16), align 8
  %.not12.i = icmp eq ptr %22, null
  br i1 %.not12.i, label %SDL_RedrawCursor.exit, label %23

23:                                               ; preds = %21
  %24 = tail call zeroext i1 %22(ptr noundef %.1.i) #13
  br label %SDL_RedrawCursor.exit

SDL_RedrawCursor.exit:                            ; preds = %23, %21, %.thread, %1
  %.015 = phi i1 [ true, %1 ], [ %8, %.thread ], [ true, %21 ], [ true, %23 ]
  ret i1 %.015
}